Certificate:
    Data:
        Version: 3 (0x2)
        Serial Number: 7 (0x7)
    Signature Algorithm: sha1WithRSAEncryption
        Issuer: C=FR, ST=75, L=Paris, O=ENST, OU=PKI, CN=CA RACINE
        Validity
            Not Before: Dec 29 13:28:34 2015 GMT
            Not After : Dec 28 13:28:34 2016 GMT
        Subject: C=FR, ST=75, L=Paris, O=ENST, OU=PKI, CN=Ahmed Serhrouchni/emailAddress=Ahmed.Serhrouchni@gmail.com
        Subject Public Key Info:
            Public Key Algorithm: rsaEncryption
                Public-Key: (2048 bit)
                Modulus:
                    00:e5:3e:9b:c7:61:99:38:0b:e7:18:7a:13:5a:50:
                    a3:33:16:af:d4:ee:b8:5b:36:c1:0d:c2:29:b5:2f:
                    4a:0a:c0:e9:44:22:8c:89:02:ef:e5:50:69:d3:87:
                    7b:95:13:97:3b:9e:e3:0c:00:8a:89:ab:d5:bc:ca:
                    d1:b3:38:a5:b5:20:9d:df:28:3e:41:4b:32:97:61:
                    38:b0:85:d4:ec:f6:6a:0d:2a:59:ad:ed:16:d8:fb:
                    87:7e:e9:40:30:3b:d0:e7:f8:03:a7:e4:70:59:71:
                    c0:14:b7:6c:b1:94:7b:73:47:1b:4a:0f:c7:dd:e2:
                    2d:1d:00:a0:00:aa:6c:7a:67:d1:de:68:91:72:42:
                    44:b7:82:8f:ac:ee:26:58:09:27:05:88:ef:02:75:
                    3b:b7:ea:18:e2:f7:d3:53:69:0e:08:a4:29:62:4a:
                    80:eb:56:43:68:47:c7:f2:d4:ee:e5:78:12:b6:05:
                    24:dd:16:f5:88:2e:7f:5a:36:67:74:44:61:00:a2:
                    52:5a:4d:49:8e:16:2f:a0:8f:fb:b4:39:79:8e:c3:
                    c7:15:02:49:9c:9d:ad:05:23:7f:aa:95:99:de:e1:
                    cc:ba:f7:65:d1:f0:02:5a:95:6c:70:07:39:ec:60:
                    5a:09:17:9b:37:34:e7:4e:b8:62:da:2a:75:bd:56:
                    a0:3b
                Exponent: 65537 (0x10001)
        X509v3 extensions:
            X509v3 Subject Key Identifier: 
                8E:B4:D3:CF:9F:31:A3:E0:65:48:F4:24:89:B6:9A:9A:46:AF:0C:AF
            X509v3 Authority Key Identifier: 
                keyid:4D:3E:72:13:48:BD:99:93:FE:03:AD:8E:EB:59:00:6E:A5:11:40:CD
                DirName:/C=FR/ST=75/L=Paris/O=ENST/OU=PKI/CN=CA RACINE
                serial:B0:EE:C6:31:A4:B4:D6:57

            X509v3 Issuer Alternative Name: 
                <EMPTY>

            X509v3 Subject Alternative Name: critical
                email:Ahmed.Serhrouchni@gmail.com
            X509v3 Basic Constraints: critical
                CA:FALSE
            X509v3 Key Usage: critical
                Digital Signature, Key Encipherment
            X509v3 CRL Distribution Points: 

                Full Name:
                  URI:http://192.168.5.100/liste_revocation.crl

            Authority Information Access: 
                OCSP - URI:http://192.168.5.100/

    Signature Algorithm: sha1WithRSAEncryption
         45:85:41:40:47:d6:17:3c:bc:18:5b:1b:e1:e8:db:d6:58:ca:
         ef:c9:fc:c6:08:94:ca:97:2f:0b:c2:98:3f:11:a9:61:98:15:
         13:3f:fb:b0:e8:73:c1:aa:43:2f:4b:8e:ae:39:05:21:2e:c7:
         b7:7f:7f:aa:15:94:a4:05:e9:64:97:aa:66:65:d3:74:e6:fc:
         d7:58:ae:ac:4b:1f:ec:e4:9a:36:25:58:db:ab:70:22:30:5b:
         61:bd:dd:72:62:81:dd:58:03:bd:63:08:d2:e5:69:74:e4:26:
         29:90:53:76:13:8b:64:24:17:65:3f:a0:3a:f5:15:1c:97:ff:
         dc:82:31:c6:99:46:c0:76:07:93:25:c6:7e:5a:43:af:fa:f6:
         23:64:3f:bd:e5:57:da:77:38:77:3c:90:a3:94:49:a0:4b:2c:
         4f:17:66:4a:2a:a7:63:cd:14:04:48:4a:9b:b2:43:f7:a5:8b:
         73:d4:4e:8f:13:35:0b:11:67:a5:74:8e:f5:43:9d:75:c2:5b:
         52:78:6b:1a:ee:c3:3d:2d:fd:d7:4f:a5:80:98:ef:63:a0:fe:
         8f:12:7c:e0:ae:df:ea:fa:aa:a9:28:80:5d:80:a3:6e:12:31:
         bb:dc:00:f3:50:ff:06:6d:90:68:d1:01:59:a0:c6:e2:53:11:
         60:ef:4d:be
-----BEGIN CERTIFICATE-----
MIIE3jCCA8agAwIBAgIBBzANBgkqhkiG9w0BAQUFADBbMQswCQYDVQQGEwJGUjEL
MAkGA1UECAwCNzUxDjAMBgNVBAcMBVBhcmlzMQ0wCwYDVQQKDARFTlNUMQwwCgYD
VQQLDANQS0kxEjAQBgNVBAMMCUNBIFJBQ0lORTAeFw0xNTEyMjkxMzI4MzRaFw0x
NjEyMjgxMzI4MzRaMIGPMQswCQYDVQQGEwJGUjELMAkGA1UECAwCNzUxDjAMBgNV
BAcMBVBhcmlzMQ0wCwYDVQQKDARFTlNUMQwwCgYDVQQLDANQS0kxGjAYBgNVBAMM
EUFobWVkIFNlcmhyb3VjaG5pMSowKAYJKoZIhvcNAQkBFhtBaG1lZC5TZXJocm91
Y2huaUBnbWFpbC5jb20wggEiMA0GCSqGSIb3DQEBAQUAA4IBDwAwggEKAoIBAQDl
PpvHYZk4C+cYehNaUKMzFq/U7rhbNsENwim1L0oKwOlEIoyJAu/lUGnTh3uVE5c7
nuMMAIqJq9W8ytGzOKW1IJ3fKD5BSzKXYTiwhdTs9moNKlmt7RbY+4d+6UAwO9Dn
+AOn5HBZccAUt2yxlHtzRxtKD8fd4i0dAKAAqmx6Z9HeaJFyQkS3go+s7iZYCScF
iO8CdTu36hji99NTaQ4IpCliSoDrVkNoR8fy1O7leBK2BSTdFvWILn9aNmd0RGEA
olJaTUmOFi+gj/u0OXmOw8cVAkmcna0FI3+qlZne4cy692XR8AJalWxwBznsYFoJ
F5s3NOdOuGLaKnW9VqA7AgMBAAGjggF2MIIBcjAdBgNVHQ4EFgQUjrTTz58xo+Bl
SPQkibaamkavDK8wgY0GA1UdIwSBhTCBgoAUTT5yE0i9mZP+A62O61kAbqURQM2h
X6RdMFsxCzAJBgNVBAYTAkZSMQswCQYDVQQIDAI3NTEOMAwGA1UEBwwFUGFyaXMx
DTALBgNVBAoMBEVOU1QxDDAKBgNVBAsMA1BLSTESMBAGA1UEAwwJQ0EgUkFDSU5F
ggkAsO7GMaS01lcwCQYDVR0SBAIwADApBgNVHREBAf8EHzAdgRtBaG1lZC5TZXJo
cm91Y2huaUBnbWFpbC5jb20wDAYDVR0TAQH/BAIwADAOBgNVHQ8BAf8EBAMCBaAw
OgYDVR0fBDMwMTAvoC2gK4YpaHR0cDovLzE5Mi4xNjguNS4xMDAvbGlzdGVfcmV2
b2NhdGlvbi5jcmwwMQYIKwYBBQUHAQEEJTAjMCEGCCsGAQUFBzABhhVodHRwOi8v
MTkyLjE2OC41LjEwMC8wDQYJKoZIhvcNAQEFBQADggEBAEWFQUBH1hc8vBhbG+Ho
29ZYyu/J/MYIlMqXLwvCmD8RqWGYFRM/+7Doc8GqQy9Ljq45BSEux7d/f6oVlKQF
6WSXqmZl03Tm/NdYrqxLH+zkmjYlWNurcCIwW2G93XJigd1YA71jCNLlaXTkJimQ
U3YTi2QkF2U/oDr1FRyX/9yCMcaZRsB2B5Mlxn5aQ6/69iNkP73lV9p3OHc8kKOU
SaBLLE8XZkoqp2PNFARISpuyQ/eli3PUTo8TNQsRZ6V0jvVDnXXCW1J4axruwz0t
/ddPpYCY72Og/o8SfOCu3+r6qqkogF2Ao24SMbvcAPNQ/wZtkGjRAVmgxuJTEWDv
Tb4=
-----END CERTIFICATE-----
